; Function Attrs: nounwind uwtable
define ptr @l_Array_foldlMUnsafe_fold___at___private_Lean_Elab_Tactic_Try_0__Lean_Elab_Tactic_Try_mkChainResult___spec__5(ptr noundef %0, ptr noundef readonly captures(none) %1, i64 noundef %2, i64 noundef %3, ptr noundef %4) local_unnamed_addr #0 {
  %.not46 = icmp eq i64 %2, %3
  br i1 %.not46, label %._crit_edge, label %.lr.ph

.lr.ph:                                           ; preds = %5
  %6 = getelementptr inbounds nuw i8, ptr %1, i64 24
  br label %7

7:                                                ; preds = %.lr.ph, %lean_dec.exit
  %.02348 = phi i64 [ %2, %.lr.ph ], [ %35, %lean_dec.exit ]
  %.02547 = phi ptr [ %4, %.lr.ph ], [ %.227, %lean_dec.exit ]
  %8 = getelementptr inbounds nuw [0 x ptr], ptr %6, i64 0, i64 %.02348
  %9 = load ptr, ptr %8, align 8, !tbaa !4
  %10 = ptrtoint ptr %9 to i64
  %11 = and i64 %10, 1
  %.not.i31.not = icmp eq i64 %11, 0
  br i1 %.not.i31.not, label %12, label %lean_inc.exit

12:                                               ; preds = %7
  %.val.i.i = load i32, ptr %9, align 4, !tbaa !8
  %13 = icmp sgt i32 %.val.i.i, 0
  br i1 %13, label %14, label %16, !prof !11

14:                                               ; preds = %12
  %15 = add nuw i32 %.val.i.i, 1
  store i32 %15, ptr %9, align 4, !tbaa !8
  br label %18

16:                                               ; preds = %12
  %.not.i.i = icmp eq i32 %.val.i.i, 0
  br i1 %.not.i.i, label %lean_inc.exit, label %17

17:                                               ; preds = %16
  tail call void @lean_inc_ref_cold(ptr noundef nonnull %9) #5
  %.val.i.pr = load i32, ptr %9, align 4, !tbaa !8
  br label %18

18:                                               ; preds = %14, %17
  %.val.i = phi i32 [ %15, %14 ], [ %.val.i.pr, %17 ]
  %19 = icmp sgt i32 %.val.i, 0
  br i1 %19, label %20, label %22, !prof !12

20:                                               ; preds = %18
  %21 = add nuw i32 %.val.i, 1
  store i32 %21, ptr %9, align 4, !tbaa !8
  br label %lean_inc.exit

22:                                               ; preds = %18
  %.not.i32 = icmp eq i32 %.val.i, 0
  br i1 %.not.i32, label %lean_inc.exit, label %23

23:                                               ; preds = %22
  tail call void @lean_inc_ref_cold(ptr noundef nonnull %9) #5
  br label %lean_inc.exit

lean_inc.exit:                                    ; preds = %16, %23, %22, %20, %7
  %24 = tail call ptr @l_Lean_Syntax_getKind(ptr noundef %9) #5
  %25 = tail call zeroext i8 @l_Array_contains___at_Lean_Server_FileWorker_collectSyntaxBasedSemanticTokens___spec__4(ptr noundef %0, ptr noundef %24) #5
  %26 = ptrtoint ptr %24 to i64
  %27 = and i64 %26, 1
  %.not45 = icmp eq i64 %27, 0
  br i1 %.not45, label %28, label %lean_dec.exit28

28:                                               ; preds = %lean_inc.exit
  %29 = load i32, ptr %24, align 4, !tbaa !8
  %30 = icmp sgt i32 %29, 1
  br i1 %30, label %31, label %33, !prof !11

31:                                               ; preds = %28
  %32 = add nsw i32 %29, -1
  store i32 %32, ptr %24, align 4, !tbaa !8
  br label %lean_dec.exit28

33:                                               ; preds = %28
  %.not.i = icmp eq i32 %29, 0
  br i1 %.not.i, label %lean_dec.exit28, label %34

34:                                               ; preds = %33
  tail call void @lean_dec_ref_cold(ptr noundef nonnull %24) #5
  br label %lean_dec.exit28

lean_dec.exit28:                                  ; preds = %34, %33, %31, %lean_inc.exit
  %35 = add i64 %.02348, 1
  %36 = icmp eq i8 %25, 0
  br i1 %36, label %37, label %39

37:                                               ; preds = %lean_dec.exit28
  %38 = tail call ptr @lean_array_push(ptr noundef %.02547, ptr noundef %9) #5
  br label %lean_dec.exit

39:                                               ; preds = %lean_dec.exit28
  br i1 %.not.i31.not, label %40, label %lean_dec.exit

40:                                               ; preds = %39
  %41 = load i32, ptr %9, align 4, !tbaa !8
  %42 = icmp sgt i32 %41, 1
  br i1 %42, label %43, label %45, !prof !11

43:                                               ; preds = %40
  %44 = add nsw i32 %41, -1
  store i32 %44, ptr %9, align 4, !tbaa !8
  br label %lean_dec.exit

45:                                               ; preds = %40
  %.not.i29 = icmp eq i32 %41, 0
  br i1 %.not.i29, label %lean_dec.exit, label %46

46:                                               ; preds = %45
  tail call void @lean_dec_ref_cold(ptr noundef nonnull %9) #5
  br label %lean_dec.exit

lean_dec.exit:                                    ; preds = %39, %43, %45, %46, %37
  %.227 = phi ptr [ %38, %37 ], [ %.02547, %46 ], [ %.02547, %45 ], [ %.02547, %43 ], [ %.02547, %39 ]
  %.not = icmp eq i64 %35, %3
  br i1 %.not, label %._crit_edge, label %7

._crit_edge:                                      ; preds = %lean_dec.exit, %5
  %.025.lcssa = phi ptr [ %4, %5 ], [ %.227, %lean_dec.exit ]
  ret ptr %.025.lcssa
}